; Function Attrs: mustprogress uwtable
define void @_ZN32pxrInternal_v0_24__pxrReserved__24HdMapContainerDataSource3GetERKNS_7TfTokenE(ptr dead_on_unwind noalias writable sret(%"class.std::shared_ptr.0") align 8 %0, ptr noundef nonnull align 8 dereferenceable(56) %1, ptr noundef nonnull align 8 dereferenceable(8) %2) unnamed_addr #0 align 2 personality ptr @__gxx_personality_v0 {
  %4 = alloca %"class.std::shared_ptr.0", align 8
  %5 = getelementptr inbounds nuw i8, ptr %1, i64 40
  %6 = load ptr, ptr %5, align 8
  %.not = icmp eq ptr %6, null
  br i1 %.not, label %7, label %8

7:                                                ; preds = %3
  tail call void @llvm.memset.p0.i64(ptr noundef nonnull align 8 dereferenceable(16) %0, i8 0, i64 16, i1 false)
  br label %_ZNSt10shared_ptrIN32pxrInternal_v0_24__pxrReserved__16HdDataSourceBaseEED2Ev.exit

8:                                                ; preds = %3
  %9 = getelementptr inbounds nuw i8, ptr %1, i64 8
  %10 = getelementptr inbounds nuw i8, ptr %1, i64 24
  %11 = load ptr, ptr %10, align 8
  %.not.i.i.not = icmp eq ptr %11, null
  %12 = load ptr, ptr %6, align 8
  %13 = getelementptr inbounds nuw i8, ptr %12, i64 24
  %14 = load ptr, ptr %13, align 8
  br i1 %.not.i.i.not, label %15, label %16

15:                                               ; preds = %8
  tail call void %14(ptr dead_on_unwind writable sret(%"class.std::shared_ptr.0") align 8 %0, ptr noundef nonnull align 8 dereferenceable(8) %6, ptr noundef nonnull align 8 dereferenceable(8) %2)
  br label %_ZNSt10shared_ptrIN32pxrInternal_v0_24__pxrReserved__16HdDataSourceBaseEED2Ev.exit

16:                                               ; preds = %8
  call void %14(ptr dead_on_unwind nonnull writable sret(%"class.std::shared_ptr.0") align 8 %4, ptr noundef nonnull align 8 dereferenceable(8) %6, ptr noundef nonnull align 8 dereferenceable(8) %2)
  %17 = load ptr, ptr %10, align 8, !noalias !4
  %.not.i.i4 = icmp eq ptr %17, null
  br i1 %.not.i.i4, label %18, label %19

18:                                               ; preds = %16
  invoke void @_ZSt25__throw_bad_function_callv() #11
          to label %.noexc unwind label %58

.noexc:                                           ; preds = %18
  unreachable

19:                                               ; preds = %16
  %20 = getelementptr inbounds nuw i8, ptr %1, i64 32
  %21 = load ptr, ptr %20, align 8, !noalias !4
  invoke void %21(ptr dead_on_unwind writable sret(%"class.std::shared_ptr.0") align 8 %0, ptr noundef nonnull align 8 dereferenceable(32) %9, ptr noundef nonnull align 8 dereferenceable(16) %4)
          to label %_ZNKSt8functionIFSt10shared_ptrIN32pxrInternal_v0_24__pxrReserved__16HdDataSourceBaseEERKS3_EEclES5_.exit unwind label %58

_ZNKSt8functionIFSt10shared_ptrIN32pxrInternal_v0_24__pxrReserved__16HdDataSourceBaseEERKS3_EEclES5_.exit: ; preds = %19
  %22 = getelementptr inbounds nuw i8, ptr %4, i64 8
  %23 = load ptr, ptr %22, align 8
  %.not.i.i.i = icmp eq ptr %23, null
  br i1 %.not.i.i.i, label %_ZNSt10shared_ptrIN32pxrInternal_v0_24__pxrReserved__16HdDataSourceBaseEED2Ev.exit, label %24

24:                                               ; preds = %_ZNKSt8functionIFSt10shared_ptrIN32pxrInternal_v0_24__pxrReserved__16HdDataSourceBaseEERKS3_EEclES5_.exit
  %25 = getelementptr inbounds nuw i8, ptr %23, i64 8
  %26 = load atomic i64, ptr %25 acquire, align 8
  %27 = icmp eq i64 %26, 4294967297
  %28 = trunc i64 %26 to i32
  br i1 %27, label %29, label %34

29:                                               ; preds = %24
  store i32 0, ptr %25, align 8
  %30 = getelementptr inbounds nuw i8, ptr %23, i64 12
  store i32 0, ptr %30, align 4
  %31 = load ptr, ptr %23, align 8
  %32 = getelementptr inbounds nuw i8, ptr %31, i64 16
  %33 = load ptr, ptr %32, align 8
  call void %33(ptr noundef nonnull align 8 dereferenceable(16) %23) #9
  br label %_ZNSt16_Sp_counted_baseILN9__gnu_cxx12_Lock_policyE2EE24_M_release_last_use_coldEv.exit.sink.split.i.i.i.i

34:                                               ; preds = %24
  %35 = load i8, ptr @__libc_single_threaded, align 1
  %.not.i.i.i.i = icmp eq i8 %35, 0
  br i1 %.not.i.i.i.i, label %38, label %36

36:                                               ; preds = %34
  %37 = add nsw i32 %28, -1
  store i32 %37, ptr %25, align 4
  br label %40

38:                                               ; preds = %34
  %39 = atomicrmw volatile add ptr %25, i32 -1 acq_rel, align 4
  br label %40

40:                                               ; preds = %38, %36
  %.0.i.i.i.i = phi i32 [ %28, %36 ], [ %39, %38 ]
  %41 = icmp eq i32 %.0.i.i.i.i, 1
  br i1 %41, label %42, label %_ZNSt10shared_ptrIN32pxrInternal_v0_24__pxrReserved__16HdDataSourceBaseEED2Ev.exit

42:                                               ; preds = %40
  %43 = load ptr, ptr %23, align 8
  %44 = getelementptr inbounds nuw i8, ptr %43, i64 16
  %45 = load ptr, ptr %44, align 8
  call void %45(ptr noundef nonnull align 8 dereferenceable(16) %23) #9
  %46 = getelementptr inbounds nuw i8, ptr %23, i64 12
  %47 = load i8, ptr @__libc_single_threaded, align 1
  %.not.i.i.i.i.i.i = icmp eq i8 %47, 0
  br i1 %.not.i.i.i.i.i.i, label %51, label %48

48:                                               ; preds = %42
  %49 = load i32, ptr %46, align 4
  %50 = add nsw i32 %49, -1
  store i32 %50, ptr %46, align 4
  br label %53

51:                                               ; preds = %42
  %52 = atomicrmw volatile add ptr %46, i32 -1 acq_rel, align 4
  br label %53

53:                                               ; preds = %51, %48
  %.0.i.i.i.i.i.i = phi i32 [ %49, %48 ], [ %52, %51 ]
  %54 = icmp eq i32 %.0.i.i.i.i.i.i, 1
  br i1 %54, label %_ZNSt16_Sp_counted_baseILN9__gnu_cxx12_Lock_policyE2EE24_M_release_last_use_coldEv.exit.sink.split.i.i.i.i, label %_ZNSt10shared_ptrIN32pxrInternal_v0_24__pxrReserved__16HdDataSourceBaseEED2Ev.exit

_ZNSt16_Sp_counted_baseILN9__gnu_cxx12_Lock_policyE2EE24_M_release_last_use_coldEv.exit.sink.split.i.i.i.i: ; preds = %53, %29
  %55 = load ptr, ptr %23, align 8
  %56 = getelementptr inbounds nuw i8, ptr %55, i64 24
  %57 = load ptr, ptr %56, align 8
  call void %57(ptr noundef nonnull align 8 dereferenceable(16) %23) #9
  br label %_ZNSt10shared_ptrIN32pxrInternal_v0_24__pxrReserved__16HdDataSourceBaseEED2Ev.exit

58:                                               ; preds = %19, %18
  %59 = landingpad { ptr, i32 }
          cleanup
  call void @_ZNSt10shared_ptrIN32pxrInternal_v0_24__pxrReserved__16HdDataSourceBaseEED2Ev(ptr noundef nonnull align 8 dereferenceable(16) %4) #9
  resume { ptr, i32 } %59

_ZNSt10shared_ptrIN32pxrInternal_v0_24__pxrReserved__16HdDataSourceBaseEED2Ev.exit: ; preds = %_ZNSt16_Sp_counted_baseILN9__gnu_cxx12_Lock_policyE2EE24_M_release_last_use_coldEv.exit.sink.split.i.i.i.i, %53, %40, %_ZNKSt8functionIFSt10shared_ptrIN32pxrInternal_v0_24__pxrReserved__16HdDataSourceBaseEERKS3_EEclES5_.exit, %15, %7
  ret void
}